; Function Attrs: nounwind uwtable
define internal fastcc i32 @ft_bzip2_file_fill_output(ptr noundef %0) unnamed_addr #0 {
  %2 = getelementptr inbounds i8, ptr %0, i64 24
  %3 = getelementptr inbounds i8, ptr %0, i64 4200
  %4 = getelementptr inbounds i8, ptr %0, i64 8304
  store ptr %3, ptr %4, align 8
  %5 = getelementptr inbounds i8, ptr %0, i64 48
  store ptr %3, ptr %5, align 8
  %6 = getelementptr inbounds i8, ptr %0, i64 56
  store i32 4096, ptr %6, align 8
  %7 = getelementptr inbounds i8, ptr %0, i64 32
  %8 = getelementptr inbounds i8, ptr %0, i64 104
  br label %9

thread-pre-split:                                 ; preds = %41
  %.pr = load i32, ptr %6, align 8
  %.not = icmp eq i32 %.pr, 0
  br i1 %.not, label %ft_bzip2_file_fill_input.exit.thread, label %9

9:                                                ; preds = %1, %thread-pre-split
  %10 = load i32, ptr %7, align 8
  %11 = icmp eq i32 %10, 0
  br i1 %11, label %12, label %41

12:                                               ; preds = %9
  %13 = load ptr, ptr %0, align 8
  %14 = getelementptr inbounds i8, ptr %13, i64 40
  %15 = load ptr, ptr %14, align 8
  %.not.i = icmp eq ptr %15, null
  br i1 %.not.i, label %24, label %16

16:                                               ; preds = %12
  %17 = getelementptr inbounds i8, ptr %13, i64 16
  %18 = load i64, ptr %17, align 8
  %19 = tail call i64 %15(ptr noundef nonnull %13, i64 noundef %18, ptr noundef nonnull %8, i64 noundef 4096) #6
  %20 = icmp eq i64 %19, 0
  br i1 %20, label %21, label %ft_bzip2_file_fill_input.exit

21:                                               ; preds = %16
  %22 = load ptr, ptr %4, align 8
  %23 = getelementptr inbounds i8, ptr %0, i64 8312
  store ptr %22, ptr %23, align 8
  br label %ft_bzip2_file_fill_input.exit.thread

24:                                               ; preds = %12
  %25 = getelementptr inbounds i8, ptr %13, i64 8
  %26 = load i64, ptr %25, align 8
  %27 = getelementptr inbounds i8, ptr %13, i64 16
  %28 = load i64, ptr %27, align 8
  %29 = icmp eq i64 %26, %28
  br i1 %29, label %30, label %33

30:                                               ; preds = %24
  %31 = load ptr, ptr %4, align 8
  %32 = getelementptr inbounds i8, ptr %0, i64 8312
  store ptr %31, ptr %32, align 8
  br label %ft_bzip2_file_fill_input.exit.thread

33:                                               ; preds = %24
  %34 = sub i64 %26, %28
  %spec.store.select.i = tail call i64 @llvm.umin.i64(i64 %34, i64 4096)
  %35 = load ptr, ptr %13, align 8
  %36 = getelementptr inbounds i8, ptr %35, i64 %28
  tail call void @llvm.memcpy.p0.p0.i64(ptr nonnull align 8 %8, ptr align 1 %36, i64 %spec.store.select.i, i1 false)
  br label %ft_bzip2_file_fill_input.exit

ft_bzip2_file_fill_input.exit:                    ; preds = %16, %33
  %.0.i = phi i64 [ %19, %16 ], [ %spec.store.select.i, %33 ]
  %37 = getelementptr inbounds i8, ptr %13, i64 16
  %38 = load i64, ptr %37, align 8
  %39 = add i64 %38, %.0.i
  store i64 %39, ptr %37, align 8
  store ptr %8, ptr %2, align 8
  %40 = trunc i64 %.0.i to i32
  store i32 %40, ptr %7, align 8
  br label %41

41:                                               ; preds = %ft_bzip2_file_fill_input.exit, %9
  %42 = tail call i32 @BZ2_bzDecompress(ptr noundef nonnull %2) #6
  %.not24 = icmp eq i32 %42, 0
  br i1 %.not24, label %thread-pre-split, label %43, !llvm.loop !4

43:                                               ; preds = %41
  %44 = getelementptr inbounds i8, ptr %0, i64 8320
  store i8 1, ptr %44, align 8
  %45 = icmp eq i32 %42, 4
  %46 = getelementptr inbounds i8, ptr %0, i64 8312
  br i1 %45, label %47, label %51

47:                                               ; preds = %43
  %48 = load ptr, ptr %5, align 8
  store ptr %48, ptr %46, align 8
  %49 = load ptr, ptr %4, align 8
  %50 = icmp eq ptr %48, %49
  %spec.select = select i1 %50, i32 85, i32 0
  br label %ft_bzip2_file_fill_input.exit.thread

51:                                               ; preds = %43
  %52 = load ptr, ptr %4, align 8
  store ptr %52, ptr %46, align 8
  br label %ft_bzip2_file_fill_input.exit.thread

ft_bzip2_file_fill_input.exit.thread:             ; preds = %thread-pre-split, %30, %21, %47, %51
  %.2 = phi i32 [ 85, %51 ], [ %spec.select, %47 ], [ 85, %21 ], [ 85, %30 ], [ 0, %thread-pre-split ]
  ret i32 %.2
}